; Function Attrs: nounwind uwtable
define range(i32 -2147483648, 1) i32 @av_buffersink_get_ch_layout(ptr noundef readonly captures(none) %0, ptr noundef writeonly captures(none) %1) local_unnamed_addr #0 {
  %3 = alloca %struct.AVChannelLayout, align 8
  call void @llvm.lifetime.start.p0(i64 24, ptr nonnull %3) #10
  call void @llvm.memset.p0.i64(ptr noundef nonnull align 8 dereferenceable(24) %3, i8 0, i64 24, i1 false)
  %4 = getelementptr inbounds nuw i8, ptr %0, i64 8
  %5 = load ptr, ptr %4, align 8, !tbaa !50
  %6 = getelementptr inbounds nuw i8, ptr %5, i64 104
  %7 = load ptr, ptr %6, align 8, !tbaa !51
  %8 = icmp eq ptr %7, @activate
  br i1 %8, label %10, label %9

9:                                                ; preds = %2
  tail call void (ptr, i32, ptr, ...) @av_log(ptr noundef null, i32 noundef 0, ptr noundef nonnull @.str, ptr noundef nonnull @.str.1, ptr noundef nonnull @.str.2, i32 noundef 359) #10
  tail call void @abort() #11
  unreachable

10:                                               ; preds = %2
  %11 = getelementptr inbounds nuw i8, ptr %0, i64 32
  %12 = load ptr, ptr %11, align 8, !tbaa !4
  %13 = load ptr, ptr %12, align 8, !tbaa !20
  %14 = getelementptr inbounds nuw i8, ptr %13, i64 72
  %15 = call i32 @av_channel_layout_copy(ptr noundef nonnull %3, ptr noundef nonnull %14) #10
  %16 = icmp slt i32 %15, 0
  br i1 %16, label %18, label %17

17:                                               ; preds = %10
  call void @llvm.memcpy.p0.p0.i64(ptr noundef nonnull align 8 dereferenceable(24) %1, ptr noundef nonnull align 8 dereferenceable(24) %3, i64 24, i1 false), !tbaa.struct !67
  br label %18

18:                                               ; preds = %10, %17
  %.0 = phi i32 [ 0, %17 ], [ %15, %10 ]
  call void @llvm.lifetime.end.p0(i64 24, ptr nonnull %3) #10
  ret i32 %.0
}